ccopy_reg
_reconstructor
p0
(csklearn.feature_extraction.text
TfidfTransformer
p1
c__builtin__
object
p2
Ntp3
Rp4
(dp5
S'use_idf'
p6
I00
sS'smooth_idf'
p7
I01
sS'_sklearn_version'
p8
S'0.19.1'
p9
sS'sublinear_tf'
p10
I00
sS'norm'
p11
Vl2
p12
sb.